target datalayout = "e-m:e-p270:32:32-p271:32:32-p272:64:64-i64:64-i128:128-f80:128-n8:16:32:64-S128"
target triple = "x86_64-unknown-linux-gnu"

%struct.b3DbvtProxy = type <{ %struct.b3BroadphaseProxy, ptr, [2 x ptr], i32, [4 x i8] }>
%struct.b3BroadphaseProxy = type { ptr, i32, i32, i32, [12 x i8], %class.b3Vector3, %class.b3Vector3 }
%class.b3Vector3 = type { %union.anon }
%union.anon = type { [4 x float] }
%struct.b3DynamicBvhBroadphase = type <{ ptr, [2 x %struct.b3DynamicBvh], [3 x ptr], %class.b3AlignedObjectArray.4, ptr, float, i32, i32, i32, i32, i32, i32, i32, i32, float, i32, i32, i8, i8, i8, [5 x i8] }>
%struct.b3DynamicBvh = type { ptr, ptr, i32, i32, i32, [4 x i8], %class.b3AlignedObjectArray, %class.b3AlignedObjectArray.0 }
%class.b3AlignedObjectArray = type <{ %class.b3AlignedAllocator, [3 x i8], i32, i32, [4 x i8], ptr, i8, [7 x i8] }>
%class.b3AlignedAllocator = type { i8 }
%class.b3AlignedObjectArray.0 = type <{ %class.b3AlignedAllocator.1, [3 x i8], i32, i32, [4 x i8], ptr, i8, [7 x i8] }>
%class.b3AlignedAllocator.1 = type { i8 }
%class.b3AlignedObjectArray.4 = type <{ %class.b3AlignedAllocator.5, [3 x i8], i32, i32, [4 x i8], ptr, i8, [7 x i8] }>
%class.b3AlignedAllocator.5 = type { i8 }
%struct.b3DbvtAabbMm = type { %class.b3Vector3, %class.b3Vector3 }
%struct.b3DbvtTreeCollider = type { %"struct.b3DynamicBvh::ICollide", ptr, ptr }
%"struct.b3DynamicBvh::ICollide" = type { ptr }

; Function Attrs: mustprogress nounwind uwtable
define linkonce_odr dso_local void @_ZN12b3DynamicBvh8ICollideD2Ev(ptr noundef nonnull align 8 dereferenceable(8) %this) unnamed_addr #3 comdat align 2 {
entry:
  %this.addr = alloca ptr, align 8
  store ptr %this, ptr %this.addr, align 8
  ret void
}

; Function Attrs: mustprogress nounwind uwtable
define linkonce_odr dso_local void @_ZN12b3DynamicBvh8ICollideC2Ev(ptr noundef nonnull align 8 dereferenceable(8) %this) unnamed_addr #3 comdat align 2 {
entry:
  %this.addr = alloca ptr, align 8
  store ptr %this, ptr %this.addr, align 8
  %this1 = load ptr, ptr %this.addr, align 8
  store ptr getelementptr inbounds ({ [9 x ptr] }, ptr @_ZTVN12b3DynamicBvh8ICollideE, i32 0, i32 0, i32 2), ptr %this1, align 8
  ret void
}

; Function Attrs: mustprogress nounwind uwtable
define linkonce_odr dso_local void @_ZN17b3BroadphaseProxyC2ERK9b3Vector3S2_Pvii(ptr noundef nonnull align 16 dereferenceable(64) %this, ptr noundef nonnull align 16 dereferenceable(16) %aabbMin, ptr noundef nonnull align 16 dereferenceable(16) %aabbMax, ptr noundef %userPtr, i32 noundef %collisionFilterGroup, i32 noundef %collisionFilterMask) unnamed_addr #3 comdat align 2 {
entry:
  %this.addr = alloca ptr, align 8
  %aabbMin.addr = alloca ptr, align 8
  %aabbMax.addr = alloca ptr, align 8
  %userPtr.addr = alloca ptr, align 8
  %collisionFilterGroup.addr = alloca i32, align 4
  %collisionFilterMask.addr = alloca i32, align 4
  store ptr %this, ptr %this.addr, align 8
  store ptr %aabbMin, ptr %aabbMin.addr, align 8
  store ptr %aabbMax, ptr %aabbMax.addr, align 8
  store ptr %userPtr, ptr %userPtr.addr, align 8
  store i32 %collisionFilterGroup, ptr %collisionFilterGroup.addr, align 4
  store i32 %collisionFilterMask, ptr %collisionFilterMask.addr, align 4
  %this1 = load ptr, ptr %this.addr, align 8
  %m_clientObject = getelementptr inbounds %struct.b3BroadphaseProxy, ptr %this1, i32 0, i32 0
  %0 = load ptr, ptr %userPtr.addr, align 8
  store ptr %0, ptr %m_clientObject, align 16
  %m_collisionFilterGroup = getelementptr inbounds %struct.b3BroadphaseProxy, ptr %this1, i32 0, i32 1
  %1 = load i32, ptr %collisionFilterGroup.addr, align 4
  store i32 %1, ptr %m_collisionFilterGroup, align 8
  %m_collisionFilterMask = getelementptr inbounds %struct.b3BroadphaseProxy, ptr %this1, i32 0, i32 2
  %2 = load i32, ptr %collisionFilterMask.addr, align 4
  store i32 %2, ptr %m_collisionFilterMask, align 4
  %m_aabbMin = getelementptr inbounds %struct.b3BroadphaseProxy, ptr %this1, i32 0, i32 5
  %3 = load ptr, ptr %aabbMin.addr, align 8
  call void @llvm.memcpy.p0.p0.i64(ptr align 16 %m_aabbMin, ptr align 16 %3, i64 16, i1 false)
  %m_aabbMax = getelementptr inbounds %struct.b3BroadphaseProxy, ptr %this1, i32 0, i32 6
  %4 = load ptr, ptr %aabbMax.addr, align 8
  call void @llvm.memcpy.p0.p0.i64(ptr align 16 %m_aabbMax, ptr align 16 %4, i64 16, i1 false)
  ret void
}

; Function Attrs: mustprogress nounwind uwtable
define linkonce_odr dso_local void @_ZN17b3BroadphaseProxydlEPvS0_(ptr noundef %0, ptr noundef %1) #3 comdat align 2 {
entry:
  %.addr = alloca ptr, align 8
  %.addr1 = alloca ptr, align 8
  store ptr %0, ptr %.addr, align 8
  store ptr %1, ptr %.addr1, align 8
  ret void
}

; Function Attrs: mustprogress nounwind uwtable
define linkonce_odr dso_local void @_ZN18b3DbvtTreeColliderD2Ev(ptr noundef nonnull align 8 dereferenceable(24) %this) unnamed_addr #3 comdat align 2 {
entry:
  %this.addr = alloca ptr, align 8
  store ptr %this, ptr %this.addr, align 8
  %this1 = load ptr, ptr %this.addr, align 8
  call void @_ZN12b3DynamicBvh8ICollideD2Ev(ptr noundef nonnull align 8 dereferenceable(8) %this1) #9
  ret void
}

; Function Attrs: mustprogress nounwind uwtable
define linkonce_odr dso_local void @_ZN18b3DbvtTreeColliderC2EP22b3DynamicBvhBroadphase(ptr noundef nonnull align 8 dereferenceable(24) %this, ptr noundef %p) unnamed_addr #3 comdat align 2 {
entry:
  %this.addr = alloca ptr, align 8
  %p.addr = alloca ptr, align 8
  store ptr %this, ptr %this.addr, align 8
  store ptr %p, ptr %p.addr, align 8
  %this1 = load ptr, ptr %this.addr, align 8
  call void @_ZN12b3DynamicBvh8ICollideC2Ev(ptr noundef nonnull align 8 dereferenceable(8) %this1) #9
  store ptr getelementptr inbounds ({ [9 x ptr] }, ptr @_ZTV18b3DbvtTreeCollider, i32 0, i32 0, i32 2), ptr %this1, align 8
  %pbp = getelementptr inbounds %struct.b3DbvtTreeCollider, ptr %this1, i32 0, i32 1
  %0 = load ptr, ptr %p.addr, align 8
  store ptr %0, ptr %pbp, align 8
  ret void
}

; Function Attrs: mustprogress nounwind uwtable
define internal void @_ZL12b3ListAppendI11b3DbvtProxyEvPT_RS2_(ptr noundef %item, ptr noundef nonnull align 8 dereferenceable(8) %list) #3 {
entry:
  %item.addr = alloca ptr, align 8
  %list.addr = alloca ptr, align 8
  store ptr %item, ptr %item.addr, align 8
  store ptr %list, ptr %list.addr, align 8
  %0 = load ptr, ptr %item.addr, align 8
  %links = getelementptr inbounds %struct.b3DbvtProxy, ptr %0, i32 0, i32 2
  %arrayidx = getelementptr inbounds [2 x ptr], ptr %links, i64 0, i64 0
  store ptr null, ptr %arrayidx, align 8
  %1 = load ptr, ptr %list.addr, align 8
  %2 = load ptr, ptr %1, align 8
  %3 = load ptr, ptr %item.addr, align 8
  %links1 = getelementptr inbounds %struct.b3DbvtProxy, ptr %3, i32 0, i32 2
  %arrayidx2 = getelementptr inbounds [2 x ptr], ptr %links1, i64 0, i64 1
  store ptr %2, ptr %arrayidx2, align 8
  %4 = load ptr, ptr %list.addr, align 8
  %5 = load ptr, ptr %4, align 8
  %tobool = icmp ne ptr %5, null
  br i1 %tobool, label %if.then, label %if.end

if.then:                                          ; preds = %entry
  %6 = load ptr, ptr %item.addr, align 8
  %7 = load ptr, ptr %list.addr, align 8
  %8 = load ptr, ptr %7, align 8
  %links3 = getelementptr inbounds %struct.b3DbvtProxy, ptr %8, i32 0, i32 2
  %arrayidx4 = getelementptr inbounds [2 x ptr], ptr %links3, i64 0, i64 0
  store ptr %6, ptr %arrayidx4, align 8
  br label %if.end

if.end:                                           ; preds = %if.then, %entry
  %9 = load ptr, ptr %item.addr, align 8
  %10 = load ptr, ptr %list.addr, align 8
  store ptr %9, ptr %10, align 8
  ret void
}

; Function Attrs: mustprogress nounwind uwtable
define linkonce_odr dso_local void @_ZN12b3DbvtAabbMm6FromMMERK9b3Vector3S2_(ptr noalias sret(%struct.b3DbvtAabbMm) align 16 %agg.result, ptr noundef nonnull align 16 dereferenceable(16) %mi, ptr noundef nonnull align 16 dereferenceable(16) %mx) #3 comdat align 2 {
entry:
  %mi.addr = alloca ptr, align 8
  %mx.addr = alloca ptr, align 8
  store ptr %mi, ptr %mi.addr, align 8
  store ptr %mx, ptr %mx.addr, align 8
  %0 = load ptr, ptr %mi.addr, align 8
  %mi1 = getelementptr inbounds %struct.b3DbvtAabbMm, ptr %agg.result, i32 0, i32 0
  call void @llvm.memcpy.p0.p0.i64(ptr align 16 %mi1, ptr align 16 %0, i64 16, i1 false)
  %1 = load ptr, ptr %mx.addr, align 8
  %mx2 = getelementptr inbounds %struct.b3DbvtAabbMm, ptr %agg.result, i32 0, i32 1
  call void @llvm.memcpy.p0.p0.i64(ptr align 16 %mx2, ptr align 16 %1, i64 16, i1 false)
  ret void
}

; Function Attrs: mustprogress uwtable
define linkonce_odr dso_local void @_ZN11b3DbvtProxyC2ERK9b3Vector3S2_Pvii(ptr noundef nonnull align 16 dereferenceable(92) %this, ptr noundef nonnull align 16 dereferenceable(16) %aabbMin, ptr noundef nonnull align 16 dereferenceable(16) %aabbMax, ptr noundef %userPtr, i32 noundef %collisionFilterGroup, i32 noundef %collisionFilterMask) unnamed_addr #0 comdat align 2 {
entry:
  %this.addr = alloca ptr, align 8
  %aabbMin.addr = alloca ptr, align 8
  %aabbMax.addr = alloca ptr, align 8
  %userPtr.addr = alloca ptr, align 8
  %collisionFilterGroup.addr = alloca i32, align 4
  %collisionFilterMask.addr = alloca i32, align 4
  store ptr %this, ptr %this.addr, align 8
  store ptr %aabbMin, ptr %aabbMin.addr, align 8
  store ptr %aabbMax, ptr %aabbMax.addr, align 8
  store ptr %userPtr, ptr %userPtr.addr, align 8
  store i32 %collisionFilterGroup, ptr %collisionFilterGroup.addr, align 4
  store i32 %collisionFilterMask, ptr %collisionFilterMask.addr, align 4
  %this1 = load ptr, ptr %this.addr, align 8
  %0 = load ptr, ptr %aabbMin.addr, align 8
  %1 = load ptr, ptr %aabbMax.addr, align 8
  %2 = load ptr, ptr %userPtr.addr, align 8
  %3 = load i32, ptr %collisionFilterGroup.addr, align 4
  %4 = load i32, ptr %collisionFilterMask.addr, align 4
  call void @_ZN17b3BroadphaseProxyC2ERK9b3Vector3S2_Pvii(ptr noundef nonnull align 16 dereferenceable(64) %this1, ptr noundef nonnull align 16 dereferenceable(16) %0, ptr noundef nonnull align 16 dereferenceable(16) %1, ptr noundef %2, i32 noundef %3, i32 noundef %4)
  %links = getelementptr inbounds %struct.b3DbvtProxy, ptr %this1, i32 0, i32 2
  %arrayidx = getelementptr inbounds [2 x ptr], ptr %links, i64 0, i64 1
  store ptr null, ptr %arrayidx, align 8
  %links2 = getelementptr inbounds %struct.b3DbvtProxy, ptr %this1, i32 0, i32 2
  %arrayidx3 = getelementptr inbounds [2 x ptr], ptr %links2, i64 0, i64 0
  store ptr null, ptr %arrayidx3, align 8
  ret void
}

; Function Attrs: mustprogress nounwind uwtable
define linkonce_odr dso_local noundef ptr @_ZN17b3BroadphaseProxynwEmPv(i64 noundef %0, ptr noundef %ptr) #3 comdat align 2 {
entry:
  %.addr = alloca i64, align 8
  %ptr.addr = alloca ptr, align 8
  store i64 %0, ptr %.addr, align 8
  store ptr %ptr, ptr %ptr.addr, align 8
  %1 = load ptr, ptr %ptr.addr, align 8
  ret ptr %1
}

; Function Attrs: mustprogress nounwind uwtable
define linkonce_odr dso_local noundef nonnull align 16 dereferenceable(92) ptr @_ZN20b3AlignedObjectArrayI11b3DbvtProxyEixEi(ptr noundef nonnull align 8 dereferenceable(25) %this, i32 noundef %n) #3 comdat align 2 {
entry:
  %this.addr = alloca ptr, align 8
  %n.addr = alloca i32, align 4
  store ptr %this, ptr %this.addr, align 8
  store i32 %n, ptr %n.addr, align 4
  %this1 = load ptr, ptr %this.addr, align 8
  %m_data = getelementptr inbounds %class.b3AlignedObjectArray.4, ptr %this1, i32 0, i32 5
  %0 = load ptr, ptr %m_data, align 8
  %1 = load i32, ptr %n.addr, align 4
  %idxprom = sext i32 %1 to i64
  %arrayidx = getelementptr inbounds %struct.b3DbvtProxy, ptr %0, i64 %idxprom
  ret ptr %arrayidx
}

; Function Attrs: mustprogress uwtable
define dso_local noundef ptr @_ZN22b3DynamicBvhBroadphase11createProxyERK9b3Vector3S2_iPvii(ptr noundef nonnull align 8 dereferenceable(315) %this, ptr noundef nonnull align 16 dereferenceable(16) %aabbMin, ptr noundef nonnull align 16 dereferenceable(16) %aabbMax, i32 noundef %objectId, ptr noundef %userPtr, i32 noundef %collisionFilterGroup, i32 noundef %collisionFilterMask) #0 align 2 personality ptr @__gxx_personality_v0 {
entry:
  %this.addr = alloca ptr, align 8
  %aabbMin.addr = alloca ptr, align 8
  %aabbMax.addr = alloca ptr, align 8
  %objectId.addr = alloca i32, align 4
  %userPtr.addr = alloca ptr, align 8
  %collisionFilterGroup.addr = alloca i32, align 4
  %collisionFilterMask.addr = alloca i32, align 4
  %mem = alloca ptr, align 8
  %proxy = alloca ptr, align 8
  %exn.slot = alloca ptr, align 8
  %ehselector.slot = alloca i32, align 4
  %aabb = alloca %struct.b3DbvtAabbMm, align 16
  %collider = alloca %struct.b3DbvtTreeCollider, align 8
  store ptr %this, ptr %this.addr, align 8
  store ptr %aabbMin, ptr %aabbMin.addr, align 8
  store ptr %aabbMax, ptr %aabbMax.addr, align 8
  store i32 %objectId, ptr %objectId.addr, align 4
  store ptr %userPtr, ptr %userPtr.addr, align 8
  store i32 %collisionFilterGroup, ptr %collisionFilterGroup.addr, align 4
  store i32 %collisionFilterMask, ptr %collisionFilterMask.addr, align 4
  %this1 = load ptr, ptr %this.addr, align 8
  %m_proxies = getelementptr inbounds %struct.b3DynamicBvhBroadphase, ptr %this1, i32 0, i32 3
  %0 = load i32, ptr %objectId.addr, align 4
  %call = call noundef nonnull align 16 dereferenceable(92) ptr @_ZN20b3AlignedObjectArrayI11b3DbvtProxyEixEi(ptr noundef nonnull align 8 dereferenceable(25) %m_proxies, i32 noundef %0)
  store ptr %call, ptr %mem, align 8
  %1 = load ptr, ptr %mem, align 8
  %call2 = call noundef ptr @_ZN17b3BroadphaseProxynwEmPv(i64 noundef 96, ptr noundef %1)
  %2 = load ptr, ptr %aabbMin.addr, align 8
  %3 = load ptr, ptr %aabbMax.addr, align 8
  %4 = load ptr, ptr %userPtr.addr, align 8
  %5 = load i32, ptr %collisionFilterGroup.addr, align 4
  %6 = load i32, ptr %collisionFilterMask.addr, align 4
  invoke void @_ZN11b3DbvtProxyC2ERK9b3Vector3S2_Pvii(ptr noundef nonnull align 16 dereferenceable(92) %call2, ptr noundef nonnull align 16 dereferenceable(16) %2, ptr noundef nonnull align 16 dereferenceable(16) %3, ptr noundef %4, i32 noundef %5, i32 noundef %6)
          to label %invoke.cont unwind label %lpad

invoke.cont:                                      ; preds = %entry
  store ptr %call2, ptr %proxy, align 8
  %7 = load ptr, ptr %aabbMin.addr, align 8
  %8 = load ptr, ptr %aabbMax.addr, align 8
  call void @_ZN12b3DbvtAabbMm6FromMMERK9b3Vector3S2_(ptr sret(%struct.b3DbvtAabbMm) align 16 %aabb, ptr noundef nonnull align 16 dereferenceable(16) %7, ptr noundef nonnull align 16 dereferenceable(16) %8)
  %m_stageCurrent = getelementptr inbounds %struct.b3DynamicBvhBroadphase, ptr %this1, i32 0, i32 6
  %9 = load i32, ptr %m_stageCurrent, align 4
  %10 = load ptr, ptr %proxy, align 8
  %stage = getelementptr inbounds %struct.b3DbvtProxy, ptr %10, i32 0, i32 3
  store i32 %9, ptr %stage, align 8
  %11 = load i32, ptr %objectId.addr, align 4
  %12 = load ptr, ptr %proxy, align 8
  %m_uniqueId = getelementptr inbounds %struct.b3BroadphaseProxy, ptr %12, i32 0, i32 3
  store i32 %11, ptr %m_uniqueId, align 16
  %m_sets = getelementptr inbounds %struct.b3DynamicBvhBroadphase, ptr %this1, i32 0, i32 1
  %arrayidx = getelementptr inbounds [2 x %struct.b3DynamicBvh], ptr %m_sets, i64 0, i64 0
  %13 = load ptr, ptr %proxy, align 8
  %call3 = call noundef ptr @_ZN12b3DynamicBvh6insertERK12b3DbvtAabbMmPv(ptr noundef nonnull align 8 dereferenceable(96) %arrayidx, ptr noundef nonnull align 16 dereferenceable(32) %aabb, ptr noundef %13)
  %14 = load ptr, ptr %proxy, align 8
  %leaf = getelementptr inbounds %struct.b3DbvtProxy, ptr %14, i32 0, i32 1
  store ptr %call3, ptr %leaf, align 16
  %15 = load ptr, ptr %proxy, align 8
  %m_stageRoots = getelementptr inbounds %struct.b3DynamicBvhBroadphase, ptr %this1, i32 0, i32 2
  %m_stageCurrent4 = getelementptr inbounds %struct.b3DynamicBvhBroadphase, ptr %this1, i32 0, i32 6
  %16 = load i32, ptr %m_stageCurrent4, align 4
  %idxprom = sext i32 %16 to i64
  %arrayidx5 = getelementptr inbounds [3 x ptr], ptr %m_stageRoots, i64 0, i64 %idxprom
  call void @_ZL12b3ListAppendI11b3DbvtProxyEvPT_RS2_(ptr noundef %15, ptr noundef nonnull align 8 dereferenceable(8) %arrayidx5)
  %m_deferedcollide = getelementptr inbounds %struct.b3DynamicBvhBroadphase, ptr %this1, i32 0, i32 18
  %17 = load i8, ptr %m_deferedcollide, align 1
  %tobool = trunc i8 %17 to i1
  br i1 %tobool, label %if.end, label %if.then

if.then:                                          ; preds = %invoke.cont
  call void @_ZN18b3DbvtTreeColliderC2EP22b3DynamicBvhBroadphase(ptr noundef nonnull align 8 dereferenceable(24) %collider, ptr noundef %this1)
  %18 = load ptr, ptr %proxy, align 8
  %proxy6 = getelementptr inbounds %struct.b3DbvtTreeCollider, ptr %collider, i32 0, i32 2
  store ptr %18, ptr %proxy6, align 8
  %m_sets7 = getelementptr inbounds %struct.b3DynamicBvhBroadphase, ptr %this1, i32 0, i32 1
  %arrayidx8 = getelementptr inbounds [2 x %struct.b3DynamicBvh], ptr %m_sets7, i64 0, i64 0
  %m_sets9 = getelementptr inbounds %struct.b3DynamicBvhBroadphase, ptr %this1, i32 0, i32 1
  %arrayidx10 = getelementptr inbounds [2 x %struct.b3DynamicBvh], ptr %m_sets9, i64 0, i64 0
  %m_root = getelementptr inbounds %struct.b3DynamicBvh, ptr %arrayidx10, i32 0, i32 0
  %19 = load ptr, ptr %m_root, align 8
  invoke void @_ZNK12b3DynamicBvh9collideTVEPK10b3DbvtNodeRK12b3DbvtAabbMmRNS_8ICollideE(ptr noundef nonnull align 8 dereferenceable(96) %arrayidx8, ptr noundef %19, ptr noundef nonnull align 16 dereferenceable(32) %aabb, ptr noundef nonnull align 8 dereferenceable(8) %collider)
          to label %invoke.cont12 unwind label %lpad11

invoke.cont12:                                    ; preds = %if.then
  %m_sets13 = getelementptr inbounds %struct.b3DynamicBvhBroadphase, ptr %this1, i32 0, i32 1
  %arrayidx14 = getelementptr inbounds [2 x %struct.b3DynamicBvh], ptr %m_sets13, i64 0, i64 1
  %m_sets15 = getelementptr inbounds %struct.b3DynamicBvhBroadphase, ptr %this1, i32 0, i32 1
  %arrayidx16 = getelementptr inbounds [2 x %struct.b3DynamicBvh], ptr %m_sets15, i64 0, i64 1
  %m_root17 = getelementptr inbounds %struct.b3DynamicBvh, ptr %arrayidx16, i32 0, i32 0
  %20 = load ptr, ptr %m_root17, align 8
  invoke void @_ZNK12b3DynamicBvh9collideTVEPK10b3DbvtNodeRK12b3DbvtAabbMmRNS_8ICollideE(ptr noundef nonnull align 8 dereferenceable(96) %arrayidx14, ptr noundef %20, ptr noundef nonnull align 16 dereferenceable(32) %aabb, ptr noundef nonnull align 8 dereferenceable(8) %collider)
          to label %invoke.cont18 unwind label %lpad11

invoke.cont18:                                    ; preds = %invoke.cont12
  call void @_ZN18b3DbvtTreeColliderD2Ev(ptr noundef nonnull align 8 dereferenceable(24) %collider) #9
  br label %if.end

lpad:                                             ; preds = %entry
  %21 = landingpad { ptr, i32 }
          cleanup
  %22 = extractvalue { ptr, i32 } %21, 0
  store ptr %22, ptr %exn.slot, align 8
  %23 = extractvalue { ptr, i32 } %21, 1
  store i32 %23, ptr %ehselector.slot, align 4
  call void @_ZN17b3BroadphaseProxydlEPvS0_(ptr noundef %call2, ptr noundef %1) #9
  br label %eh.resume

lpad11:                                           ; preds = %invoke.cont12, %if.then
  %24 = landingpad { ptr, i32 }
          cleanup
  %25 = extractvalue { ptr, i32 } %24, 0
  store ptr %25, ptr %exn.slot, align 8
  %26 = extractvalue { ptr, i32 } %24, 1
  store i32 %26, ptr %ehselector.slot, align 4
  call void @_ZN18b3DbvtTreeColliderD2Ev(ptr noundef nonnull align 8 dereferenceable(24) %collider) #9
  br label %eh.resume

if.end:                                           ; preds = %invoke.cont18, %invoke.cont
  %27 = load ptr, ptr %proxy, align 8
  ret ptr %27

eh.resume:                                        ; preds = %lpad11, %lpad
  %exn = load ptr, ptr %exn.slot, align 8
  %sel = load i32, ptr %ehselector.slot, align 4
  %lpad.val = insertvalue { ptr, i32 } poison, ptr %exn, 0
  %lpad.val19 = insertvalue { ptr, i32 } %lpad.val, i32 %sel, 1
  resume { ptr, i32 } %lpad.val19
}