; Function Attrs: mustprogress uwtable
define dso_local noundef ptr @_ZN22b3DynamicBvhBroadphase11createProxyERK9b3Vector3S2_iPvii(ptr noundef nonnull align 8 dereferenceable(315) %this, ptr nocapture noundef nonnull readonly align 16 dereferenceable(16) %aabbMin, ptr nocapture noundef nonnull readonly align 16 dereferenceable(16) %aabbMax, i32 noundef %objectId, ptr noundef %userPtr, i32 noundef %collisionFilterGroup, i32 noundef %collisionFilterMask) local_unnamed_addr #0 align 2 personality ptr @__gxx_personality_v0 {
invoke.cont:
  %aabb = alloca %struct.b3DbvtAabbMm, align 16
  %collider = alloca %struct.b3DbvtTreeCollider, align 8
  %m_data.i = getelementptr inbounds i8, ptr %this, i64 240
  %0 = load ptr, ptr %m_data.i, align 8
  %idxprom.i = sext i32 %objectId to i64
  %arrayidx.i = getelementptr inbounds %struct.b3DbvtProxy, ptr %0, i64 %idxprom.i
  store ptr %userPtr, ptr %arrayidx.i, align 16
  %m_collisionFilterGroup.i.i = getelementptr inbounds i8, ptr %arrayidx.i, i64 8
  store i32 %collisionFilterGroup, ptr %m_collisionFilterGroup.i.i, align 8
  %m_collisionFilterMask.i.i = getelementptr inbounds i8, ptr %arrayidx.i, i64 12
  store i32 %collisionFilterMask, ptr %m_collisionFilterMask.i.i, align 4
  %m_aabbMin.i.i = getelementptr inbounds i8, ptr %arrayidx.i, i64 32
  tail call void @llvm.memcpy.p0.p0.i64(ptr noundef nonnull align 16 dereferenceable(16) %m_aabbMin.i.i, ptr noundef nonnull align 16 dereferenceable(16) %aabbMin, i64 16, i1 false)
  %m_aabbMax.i.i = getelementptr inbounds i8, ptr %arrayidx.i, i64 48
  tail call void @llvm.memcpy.p0.p0.i64(ptr noundef nonnull align 16 dereferenceable(16) %m_aabbMax.i.i, ptr noundef nonnull align 16 dereferenceable(16) %aabbMax, i64 16, i1 false)
  %links.i = getelementptr inbounds i8, ptr %arrayidx.i, i64 72
  tail call void @llvm.memset.p0.i64(ptr noundef nonnull align 8 dereferenceable(16) %links.i, i8 0, i64 16, i1 false)
  call void @llvm.memcpy.p0.p0.i64(ptr noundef nonnull align 16 dereferenceable(16) %aabb, ptr noundef nonnull align 16 dereferenceable(16) %aabbMin, i64 16, i1 false)
  %mx2.i = getelementptr inbounds i8, ptr %aabb, i64 16
  call void @llvm.memcpy.p0.p0.i64(ptr noundef nonnull align 16 dereferenceable(16) %mx2.i, ptr noundef nonnull align 16 dereferenceable(16) %aabbMax, i64 16, i1 false)
  %m_stageCurrent = getelementptr inbounds i8, ptr %this, i64 268
  %1 = load i32, ptr %m_stageCurrent, align 4
  %stage = getelementptr inbounds i8, ptr %arrayidx.i, i64 88
  store i32 %1, ptr %stage, align 8
  %m_uniqueId = getelementptr inbounds i8, ptr %arrayidx.i, i64 16
  store i32 %objectId, ptr %m_uniqueId, align 16
  %m_sets = getelementptr inbounds i8, ptr %this, i64 8
  %call3 = call noundef ptr @_ZN12b3DynamicBvh6insertERK12b3DbvtAabbMmPv(ptr noundef nonnull align 8 dereferenceable(96) %m_sets, ptr noundef nonnull align 16 dereferenceable(32) %aabb, ptr noundef nonnull %arrayidx.i)
  %leaf = getelementptr inbounds i8, ptr %arrayidx.i, i64 64
  store ptr %call3, ptr %leaf, align 16
  %m_stageRoots = getelementptr inbounds i8, ptr %this, i64 200
  %2 = load i32, ptr %m_stageCurrent, align 4
  %idxprom = sext i32 %2 to i64
  %arrayidx5 = getelementptr inbounds [3 x ptr], ptr %m_stageRoots, i64 0, i64 %idxprom
  store ptr null, ptr %links.i, align 8
  %3 = load ptr, ptr %arrayidx5, align 8
  %arrayidx2.i = getelementptr inbounds i8, ptr %arrayidx.i, i64 80
  store ptr %3, ptr %arrayidx2.i, align 8
  %tobool.not.i = icmp eq ptr %3, null
  br i1 %tobool.not.i, label %_ZL12b3ListAppendI11b3DbvtProxyEvPT_RS2_.exit, label %if.then.i

if.then.i:                                        ; preds = %invoke.cont
  %links3.i = getelementptr inbounds i8, ptr %3, i64 72
  store ptr %arrayidx.i, ptr %links3.i, align 8
  br label %_ZL12b3ListAppendI11b3DbvtProxyEvPT_RS2_.exit

_ZL12b3ListAppendI11b3DbvtProxyEvPT_RS2_.exit:    ; preds = %invoke.cont, %if.then.i
  store ptr %arrayidx.i, ptr %arrayidx5, align 8
  %m_deferedcollide = getelementptr inbounds i8, ptr %this, i64 313
  %4 = load i8, ptr %m_deferedcollide, align 1
  %5 = and i8 %4, 1
  %tobool.not = icmp eq i8 %5, 0
  br i1 %tobool.not, label %if.then, label %if.end

if.then:                                          ; preds = %_ZL12b3ListAppendI11b3DbvtProxyEvPT_RS2_.exit
  store ptr getelementptr inbounds ({ [9 x ptr] }, ptr @_ZTV18b3DbvtTreeCollider, i64 0, i32 0, i64 2), ptr %collider, align 8
  %pbp.i = getelementptr inbounds i8, ptr %collider, i64 8
  store ptr %this, ptr %pbp.i, align 8
  %proxy6 = getelementptr inbounds i8, ptr %collider, i64 16
  store ptr %arrayidx.i, ptr %proxy6, align 8
  %6 = load ptr, ptr %m_sets, align 8
  call void @_ZNK12b3DynamicBvh9collideTVEPK10b3DbvtNodeRK12b3DbvtAabbMmRNS_8ICollideE(ptr noundef nonnull align 8 dereferenceable(96) %m_sets, ptr noundef %6, ptr noundef nonnull align 16 dereferenceable(32) %aabb, ptr noundef nonnull align 8 dereferenceable(8) %collider)
  %arrayidx14 = getelementptr inbounds i8, ptr %this, i64 104
  %7 = load ptr, ptr %arrayidx14, align 8
  call void @_ZNK12b3DynamicBvh9collideTVEPK10b3DbvtNodeRK12b3DbvtAabbMmRNS_8ICollideE(ptr noundef nonnull align 8 dereferenceable(96) %arrayidx14, ptr noundef %7, ptr noundef nonnull align 16 dereferenceable(32) %aabb, ptr noundef nonnull align 8 dereferenceable(8) %collider)
  br label %if.end

if.end:                                           ; preds = %if.then, %_ZL12b3ListAppendI11b3DbvtProxyEvPT_RS2_.exit
  ret ptr %arrayidx.i
}